; ModuleID = '63/1176.c'
source_filename = "63/1176.c"
target datalayout = "e-m:e-p270:32:32-p271:32:32-p272:64:64-i64:64-f80:128-n8:16:32:64-S128"
target triple = "x86_64-pc-linux-gnu"

@.str = private unnamed_addr constant [6 x i8] c"%d %d\00", align 1
@.str.1 = private unnamed_addr constant [3 x i8] c"%d\00", align 1
@.str.2 = private unnamed_addr constant [4 x i8] c" %d\00", align 1
@.str.3 = private unnamed_addr constant [2 x i8] c"\0A\00", align 1

; Function Attrs: noinline nounwind uwtable
define dso_local i32 @main() #0 {
  %1 = alloca i32, align 4
  %2 = alloca i32, align 4
  %3 = alloca i32, align 4
  %4 = alloca i32, align 4
  %5 = alloca i32, align 4
  %6 = alloca i32, align 4
  %7 = alloca i32, align 4
  %8 = alloca i32, align 4
  %9 = alloca i32, align 4
  %10 = alloca i32*, align 8
  %11 = alloca i32*, align 8
  store i32 0, i32* %1, align 4
  %12 = call i32 (i8*, ...) @__isoc99_scanf(i8* getelementptr inbounds ([6 x i8], [6 x i8]* @.str, i64 0, i64 0), i32* %2, i32* %3)
  %13 = load i32, i32* %2, align 4
  %14 = load i32, i32* %3, align 4
  %15 = mul nsw i32 %13, %14
  %16 = sext i32 %15 to i64
  %17 = mul i64 %16, 4
  %18 = call noalias i8* @malloc(i64 %17) #3
  %19 = bitcast i8* %18 to i32*
  store i32* %19, i32** %10, align 8
  store i32 0, i32* %6, align 4
  br label %20

20:                                               ; preds = %32, %0
  %21 = load i32, i32* %6, align 4
  %22 = load i32, i32* %2, align 4
  %23 = load i32, i32* %3, align 4
  %24 = mul nsw i32 %22, %23
  %25 = icmp slt i32 %21, %24
  br i1 %25, label %26, label %35

26:                                               ; preds = %20
  %27 = load i32*, i32** %10, align 8
  %28 = load i32, i32* %6, align 4
  %29 = sext i32 %28 to i64
  %30 = getelementptr inbounds i32, i32* %27, i64 %29
  %31 = call i32 (i8*, ...) @__isoc99_scanf(i8* getelementptr inbounds ([3 x i8], [3 x i8]* @.str.1, i64 0, i64 0), i32* %30)
  br label %32

32:                                               ; preds = %26
  %33 = load i32, i32* %6, align 4
  %34 = add nsw i32 %33, 1
  store i32 %34, i32* %6, align 4
  br label %20

35:                                               ; preds = %20
  %36 = call i32 (i8*, ...) @__isoc99_scanf(i8* getelementptr inbounds ([6 x i8], [6 x i8]* @.str, i64 0, i64 0), i32* %4, i32* %5)
  %37 = load i32, i32* %4, align 4
  %38 = load i32, i32* %5, align 4
  %39 = mul nsw i32 %37, %38
  %40 = sext i32 %39 to i64
  %41 = mul i64 %40, 4
  %42 = call noalias i8* @malloc(i64 %41) #3
  %43 = bitcast i8* %42 to i32*
  store i32* %43, i32** %11, align 8
  store i32 0, i32* %6, align 4
  br label %44

44:                                               ; preds = %56, %35
  %45 = load i32, i32* %6, align 4
  %46 = load i32, i32* %4, align 4
  %47 = load i32, i32* %5, align 4
  %48 = mul nsw i32 %46, %47
  %49 = icmp slt i32 %45, %48
  br i1 %49, label %50, label %59

50:                                               ; preds = %44
  %51 = load i32*, i32** %11, align 8
  %52 = load i32, i32* %6, align 4
  %53 = sext i32 %52 to i64
  %54 = getelementptr inbounds i32, i32* %51, i64 %53
  %55 = call i32 (i8*, ...) @__isoc99_scanf(i8* getelementptr inbounds ([3 x i8], [3 x i8]* @.str.1, i64 0, i64 0), i32* %54)
  br label %56

56:                                               ; preds = %50
  %57 = load i32, i32* %6, align 4
  %58 = add nsw i32 %57, 1
  store i32 %58, i32* %6, align 4
  br label %44

59:                                               ; preds = %44
  store i32 0, i32* %6, align 4
  br label %60

60:                                               ; preds = %120, %59
  %61 = load i32, i32* %6, align 4
  %62 = load i32, i32* %2, align 4
  %63 = icmp slt i32 %61, %62
  br i1 %63, label %64, label %123

64:                                               ; preds = %60
  store i32 0, i32* %7, align 4
  br label %65

65:                                               ; preds = %116, %64
  %66 = load i32, i32* %7, align 4
  %67 = load i32, i32* %5, align 4
  %68 = icmp slt i32 %66, %67
  br i1 %68, label %69, label %119

69:                                               ; preds = %65
  store i32 0, i32* %9, align 4
  store i32 0, i32* %8, align 4
  br label %70

70:                                               ; preds = %96, %69
  %71 = load i32, i32* %8, align 4
  %72 = load i32, i32* %3, align 4
  %73 = icmp slt i32 %71, %72
  br i1 %73, label %74, label %99

74:                                               ; preds = %70
  %75 = load i32, i32* %9, align 4
  %76 = load i32*, i32** %10, align 8
  %77 = load i32, i32* %6, align 4
  %78 = load i32, i32* %3, align 4
  %79 = mul nsw i32 %77, %78
  %80 = load i32, i32* %8, align 4
  %81 = add nsw i32 %79, %80
  %82 = sext i32 %81 to i64
  %83 = getelementptr inbounds i32, i32* %76, i64 %82
  %84 = load i32, i32* %83, align 4
  %85 = load i32*, i32** %11, align 8
  %86 = load i32, i32* %8, align 4
  %87 = load i32, i32* %5, align 4
  %88 = mul nsw i32 %86, %87
  %89 = load i32, i32* %7, align 4
  %90 = add nsw i32 %88, %89
  %91 = sext i32 %90 to i64
  %92 = getelementptr inbounds i32, i32* %85, i64 %91
  %93 = load i32, i32* %92, align 4
  %94 = mul nsw i32 %84, %93
  %95 = add nsw i32 %75, %94
  store i32 %95, i32* %9, align 4
  br label %96

96:                                               ; preds = %74
  %97 = load i32, i32* %8, align 4
  %98 = add nsw i32 %97, 1
  store i32 %98, i32* %8, align 4
  br label %70

99:                                               ; preds = %70
  %100 = load i32, i32* %7, align 4
  %101 = icmp eq i32 %100, 0
  br i1 %101, label %102, label %105

102:                                              ; preds = %99
  %103 = load i32, i32* %9, align 4
  %104 = call i32 (i8*, ...) @printf(i8* getelementptr inbounds ([3 x i8], [3 x i8]* @.str.1, i64 0, i64 0), i32 %103)
  br label %108

105:                                              ; preds = %99
  %106 = load i32, i32* %9, align 4
  %107 = call i32 (i8*, ...) @printf(i8* getelementptr inbounds ([4 x i8], [4 x i8]* @.str.2, i64 0, i64 0), i32 %106)
  br label %108

108:                                              ; preds = %105, %102
  %109 = load i32, i32* %7, align 4
  %110 = load i32, i32* %5, align 4
  %111 = sub nsw i32 %110, 1
  %112 = icmp eq i32 %109, %111
  br i1 %112, label %113, label %115

113:                                              ; preds = %108
  %114 = call i32 (i8*, ...) @printf(i8* getelementptr inbounds ([2 x i8], [2 x i8]* @.str.3, i64 0, i64 0))
  br label %115

115:                                              ; preds = %113, %108
  br label %116

116:                                              ; preds = %115
  %117 = load i32, i32* %7, align 4
  %118 = add nsw i32 %117, 1
  store i32 %118, i32* %7, align 4
  br label %65

119:                                              ; preds = %65
  br label %120

120:                                              ; preds = %119
  %121 = load i32, i32* %6, align 4
  %122 = add nsw i32 %121, 1
  store i32 %122, i32* %6, align 4
  br label %60

123:                                              ; preds = %60
  %124 = call i32 @getchar()
  %125 = call i32 @getchar()
  %126 = call i32 @getchar()
  %127 = load i32, i32* %1, align 4
  ret i32 %127
}

declare dso_local i32 @__isoc99_scanf(i8*, ...) #1

; Function Attrs: nounwind
declare dso_local noalias i8* @malloc(i64) #2

declare dso_local i32 @printf(i8*, ...) #1

declare dso_local i32 @getchar() #1


!llvm.module.flags = !{!0}
!llvm.ident = !{!1}

!0 = !{i32 1, !"wchar_size", i32 4}
!1 = !{!"clang version 10.0.0-4ubuntu1 "}
